; Function Attrs: mustprogress uwtable
define internal void @"_ZNSt17_Function_handlerIFvvEZN3gmx14TopologyHolder22registerDomDecCallbackEvE3$_0E9_M_invokeERKSt9_Any_data"(ptr nocapture noundef nonnull readonly align 8 dereferenceable(16) %0) #2 align 2 {
  %.val = load ptr, ptr %0, align 8
  %2 = getelementptr inbounds i8, ptr %.val, i64 24
  %3 = load ptr, ptr %2, align 8
  %4 = getelementptr inbounds i8, ptr %.val, i64 32
  %5 = load ptr, ptr %4, align 8
  %.not7.i.i.i.i = icmp eq ptr %3, %5
  br i1 %.not7.i.i.i.i, label %"_ZSt10__invoke_rIvRZN3gmx14TopologyHolder22registerDomDecCallbackEvE3$_0JEENSt9enable_ifIX16is_invocable_r_vIT_T0_DpT1_EES5_E4typeEOS6_DpOS7_.exit", label %.lr.ph.i.i.i.i

.lr.ph.i.i.i.i:                                   ; preds = %1
  %6 = getelementptr inbounds i8, ptr %.val, i64 16
  br label %7

7:                                                ; preds = %7, %.lr.ph.i.i.i.i
  %.sroa.04.08.i.i.i.i = phi ptr [ %3, %.lr.ph.i.i.i.i ], [ %13, %7 ]
  %8 = load ptr, ptr %.sroa.04.08.i.i.i.i, align 8
  %9 = load ptr, ptr %6, align 8
  %10 = load ptr, ptr %8, align 8
  %11 = getelementptr inbounds i8, ptr %10, i64 16
  %12 = load ptr, ptr %11, align 8
  tail call void %12(ptr noundef nonnull align 8 dereferenceable(8) %8, ptr noundef %9)
  %13 = getelementptr inbounds i8, ptr %.sroa.04.08.i.i.i.i, i64 8
  %.not.i.i.i.i = icmp eq ptr %13, %5
  br i1 %.not.i.i.i.i, label %"_ZSt10__invoke_rIvRZN3gmx14TopologyHolder22registerDomDecCallbackEvE3$_0JEENSt9enable_ifIX16is_invocable_r_vIT_T0_DpT1_EES5_E4typeEOS6_DpOS7_.exit", label %7

"_ZSt10__invoke_rIvRZN3gmx14TopologyHolder22registerDomDecCallbackEvE3$_0JEENSt9enable_ifIX16is_invocable_r_vIT_T0_DpT1_EES5_E4typeEOS6_DpOS7_.exit": ; preds = %7, %1
  ret void
}